target datalayout = "e-m:e-p270:32:32-p271:32:32-p272:64:64-i64:64-i128:128-f80:128-n8:16:32:64-S128"
target triple = "x86_64-pc-linux-gnu"

%struct._lv_obj_t = type { ptr, ptr, ptr, ptr, ptr, %struct.lv_area_t, i32, i16, i16 }
%struct.lv_area_t = type { i32, i32, i32, i32 }

; Function Attrs: nounwind uwtable
define void @lv_obj_add_state(ptr noundef %0, i16 noundef zeroext %1) #0 {
  %3 = alloca ptr, align 8
  %4 = alloca i16, align 2
  %5 = alloca i16, align 2
  store ptr %0, ptr %3, align 8, !tbaa !8
  store i16 %1, ptr %4, align 2, !tbaa !42
  br label %6

6:                                                ; preds = %2
  %7 = load ptr, ptr %3, align 8, !tbaa !8
  %8 = icmp ne ptr %7, null
  br i1 %8, label %13, label %9

9:                                                ; preds = %6
  br label %10

10:                                               ; preds = %9
  br label %11

11:                                               ; preds = %10
  br label %12

12:                                               ; preds = %11, %12
  br label %12

13:                                               ; preds = %6
  br label %14

14:                                               ; preds = %13
  call void @llvm.lifetime.start.p0(i64 2, ptr %5) #5
  %15 = load ptr, ptr %3, align 8, !tbaa !8
  %16 = getelementptr inbounds nuw %struct._lv_obj_t, ptr %15, i32 0, i32 7
  %17 = load i16, ptr %16, align 4, !tbaa !46
  %18 = zext i16 %17 to i32
  %19 = load i16, ptr %4, align 2, !tbaa !42
  %20 = zext i16 %19 to i32
  %21 = or i32 %18, %20
  %22 = trunc i32 %21 to i16
  store i16 %22, ptr %5, align 2, !tbaa !42
  %23 = load ptr, ptr %3, align 8, !tbaa !8
  %24 = getelementptr inbounds nuw %struct._lv_obj_t, ptr %23, i32 0, i32 7
  %25 = load i16, ptr %24, align 4, !tbaa !46
  %26 = zext i16 %25 to i32
  %27 = load i16, ptr %5, align 2, !tbaa !42
  %28 = zext i16 %27 to i32
  %29 = icmp ne i32 %26, %28
  br i1 %29, label %30, label %33

30:                                               ; preds = %14
  %31 = load ptr, ptr %3, align 8, !tbaa !8
  %32 = load i16, ptr %5, align 2, !tbaa !42
  call void @update_obj_state(ptr noundef %31, i16 noundef zeroext %32)
  br label %33

33:                                               ; preds = %30, %14
  call void @llvm.lifetime.end.p0(i64 2, ptr %5) #5
  ret void
}